; ModuleID = 'source-C-CXX/49/1373.c'
source_filename = "source-C-CXX/49/1373.c"
target datalayout = "e-m:e-p270:32:32-p271:32:32-p272:64:64-i64:64-f80:128-n8:16:32:64-S128"
target triple = "x86_64-pc-linux-gnu"

@.str = private unnamed_addr constant [3 x i8] c"%d\00", align 1
@.str.1 = private unnamed_addr constant [4 x i8] c"%d\0A\00", align 1

; Function Attrs: nofree nounwind sspstrong uwtable
define dso_local i32 @main() local_unnamed_addr #0 {
  %1 = alloca i32, align 4
  %2 = bitcast i32* %1 to i8*
  call void @llvm.lifetime.start.p0i8(i64 4, i8* nonnull %2) #3
  %3 = call i32 (i8*, ...) @__isoc99_scanf(i8* getelementptr inbounds ([3 x i8], [3 x i8]* @.str, i64 0, i64 0), i32* nonnull %1)
  br label %4

4:                                                ; preds = %0, %25
  %5 = phi i32 [ 1, %0 ], [ %26, %25 ]
  %6 = load i32, i32* %1, align 4, !tbaa !5
  %7 = add i32 %6, 7
  %8 = srem i32 %7, 7
  %9 = icmp eq i32 %8, 0
  br i1 %9, label %10, label %12

10:                                               ; preds = %4
  %11 = call i32 (i8*, ...) @printf(i8* nonnull dereferenceable(1) getelementptr inbounds ([4 x i8], [4 x i8]* @.str.1, i64 0, i64 0), i32 %5)
  br label %12

12:                                               ; preds = %10, %4
  %13 = and i32 %5, 2147483645
  %14 = and i32 %5, 2147483641
  %15 = icmp eq i32 %14, 1
  %16 = icmp eq i32 %13, 8
  %17 = or i1 %16, %15
  br i1 %17, label %18, label %21

18:                                               ; preds = %12
  %19 = load i32, i32* %1, align 4, !tbaa !5
  %20 = add nsw i32 %19, 3
  store i32 %20, i32* %1, align 4, !tbaa !5
  br label %21

21:                                               ; preds = %12, %18
  switch i32 %13, label %25 [
    i32 9, label %22
    i32 4, label %22
  ]

22:                                               ; preds = %21, %21
  %23 = load i32, i32* %1, align 4, !tbaa !5
  %24 = add nsw i32 %23, 2
  store i32 %24, i32* %1, align 4, !tbaa !5
  br label %25

25:                                               ; preds = %21, %22
  %26 = add nuw nsw i32 %5, 1
  %27 = icmp eq i32 %26, 13
  br i1 %27, label %28, label %4, !llvm.loop !9

28:                                               ; preds = %25
  call void @llvm.lifetime.end.p0i8(i64 4, i8* nonnull %2) #3
  ret i32 0
}

; Function Attrs: argmemonly mustprogress nofree nosync nounwind willreturn
declare void @llvm.lifetime.start.p0i8(i64 immarg, i8* nocapture) #1

; Function Attrs: nofree nounwind
declare noundef i32 @__isoc99_scanf(i8* nocapture noundef readonly, ...) local_unnamed_addr #2

; Function Attrs: nofree nounwind
declare noundef i32 @printf(i8* nocapture noundef readonly, ...) local_unnamed_addr #2

; Function Attrs: argmemonly mustprogress nofree nosync nounwind willreturn
declare void @llvm.lifetime.end.p0i8(i64 immarg, i8* nocapture) #1


!llvm.module.flags = !{!0, !1, !2, !3}
!llvm.ident = !{!4}

!0 = !{i32 1, !"wchar_size", i32 4}
!1 = !{i32 7, !"PIC Level", i32 2}
!2 = !{i32 7, !"PIE Level", i32 2}
!3 = !{i32 7, !"uwtable", i32 1}
!4 = !{!"clang version 13.0.0"}
!5 = !{!6, !6, i64 0}
!6 = !{!"int", !7, i64 0}
!7 = !{!"omnipotent char", !8, i64 0}
!8 = !{!"Simple C/C++ TBAA"}
!9 = distinct !{!9, !10}
!10 = !{!"llvm.loop.mustprogress"}
